target datalayout = "e-m:e-p270:32:32-p271:32:32-p272:64:64-i64:64-i128:128-f80:128-n8:16:32:64-S128"
target triple = "x86_64-pc-linux-gnu"

%"class.testing::internal::TestEventRepeater" = type { %"class.testing::TestEventListener", i8, %"class.std::vector.198" }
%"class.testing::TestEventListener" = type { ptr }
%"class.std::vector.198" = type { %"struct.std::_Vector_base.199" }
%"struct.std::_Vector_base.199" = type { %"struct.std::_Vector_base<testing::TestEventListener *, std::allocator<testing::TestEventListener *>>::_Vector_impl" }
%"struct.std::_Vector_base<testing::TestEventListener *, std::allocator<testing::TestEventListener *>>::_Vector_impl" = type { %"struct.std::_Vector_base<testing::TestEventListener *, std::allocator<testing::TestEventListener *>>::_Vector_impl_data" }
%"struct.std::_Vector_base<testing::TestEventListener *, std::allocator<testing::TestEventListener *>>::_Vector_impl_data" = type { ptr, ptr, ptr }

; Function Attrs: mustprogress nounwind uwtable
define linkonce_odr noundef nonnull align 8 dereferenceable(8) ptr @_ZNSt6vectorIPN7testing17TestEventListenerESaIS2_EEixEm(ptr noundef nonnull align 8 dereferenceable(24) %0, i64 noundef %1) #7 comdat align 2 {
  %3 = alloca ptr, align 8
  %4 = alloca i64, align 8
  store ptr %0, ptr %3, align 8, !tbaa !741
  store i64 %1, ptr %4, align 8, !tbaa !181
  %5 = load ptr, ptr %3, align 8
  %6 = getelementptr inbounds nuw %"struct.std::_Vector_base.199", ptr %5, i32 0, i32 0
  %7 = getelementptr inbounds nuw %"struct.std::_Vector_base<testing::TestEventListener *, std::allocator<testing::TestEventListener *>>::_Vector_impl_data", ptr %6, i32 0, i32 0
  %8 = load ptr, ptr %7, align 8, !tbaa !743
  %9 = load i64, ptr %4, align 8, !tbaa !181
  %10 = getelementptr inbounds nuw ptr, ptr %8, i64 %9
  ret ptr %10
}

; Function Attrs: mustprogress nounwind uwtable
define linkonce_odr noundef i64 @_ZNKSt6vectorIPN7testing17TestEventListenerESaIS2_EE4sizeEv(ptr noundef nonnull align 8 dereferenceable(24) %0) #7 comdat align 2 {
  %2 = alloca ptr, align 8
  store ptr %0, ptr %2, align 8, !tbaa !741
  %3 = load ptr, ptr %2, align 8
  %4 = getelementptr inbounds nuw %"struct.std::_Vector_base.199", ptr %3, i32 0, i32 0
  %5 = getelementptr inbounds nuw %"struct.std::_Vector_base<testing::TestEventListener *, std::allocator<testing::TestEventListener *>>::_Vector_impl_data", ptr %4, i32 0, i32 1
  %6 = load ptr, ptr %5, align 8, !tbaa !746
  %7 = getelementptr inbounds nuw %"struct.std::_Vector_base.199", ptr %3, i32 0, i32 0
  %8 = getelementptr inbounds nuw %"struct.std::_Vector_base<testing::TestEventListener *, std::allocator<testing::TestEventListener *>>::_Vector_impl_data", ptr %7, i32 0, i32 0
  %9 = load ptr, ptr %8, align 8, !tbaa !743
  %10 = ptrtoint ptr %6 to i64
  %11 = ptrtoint ptr %9 to i64
  %12 = sub i64 %10, %11
  %13 = sdiv exact i64 %12, 8
  ret i64 %13
}

; Function Attrs: mustprogress uwtable
define void @_ZN7testing8internal17TestEventRepeater16OnTestSuiteStartERKNS_9TestSuiteE(ptr noundef nonnull align 8 dereferenceable(40) %0, ptr noundef nonnull align 8 dereferenceable(264) %1) unnamed_addr #4 align 2 {
  %3 = alloca ptr, align 8
  %4 = alloca ptr, align 8
  %5 = alloca i64, align 8
  store ptr %0, ptr %3, align 8, !tbaa !740
  store ptr %1, ptr %4, align 8, !tbaa !513
  %6 = load ptr, ptr %3, align 8
  %7 = getelementptr inbounds nuw %"class.testing::internal::TestEventRepeater", ptr %6, i32 0, i32 1
  %8 = load i8, ptr %7, align 8, !tbaa !758, !range !18, !noundef !19
  %9 = trunc i8 %8 to i1
  br i1 %9, label %10, label %30

10:                                               ; preds = %2
  call void @llvm.lifetime.start.p0(i64 8, ptr %5) #3
  store i64 0, ptr %5, align 8, !tbaa !181
  br label %11

11:                                               ; preds = %26, %10
  %12 = load i64, ptr %5, align 8, !tbaa !181
  %13 = getelementptr inbounds nuw %"class.testing::internal::TestEventRepeater", ptr %6, i32 0, i32 2
  %14 = call noundef i64 @_ZNKSt6vectorIPN7testing17TestEventListenerESaIS2_EE4sizeEv(ptr noundef nonnull align 8 dereferenceable(24) %13) #3
  %15 = icmp ult i64 %12, %14
  br i1 %15, label %17, label %16

16:                                               ; preds = %11
  call void @llvm.lifetime.end.p0(i64 8, ptr %5) #3
  br label %29

17:                                               ; preds = %11
  %18 = getelementptr inbounds nuw %"class.testing::internal::TestEventRepeater", ptr %6, i32 0, i32 2
  %19 = load i64, ptr %5, align 8, !tbaa !181
  %20 = call noundef nonnull align 8 dereferenceable(8) ptr @_ZNSt6vectorIPN7testing17TestEventListenerESaIS2_EEixEm(ptr noundef nonnull align 8 dereferenceable(24) %18, i64 noundef %19) #3
  %21 = load ptr, ptr %20, align 8, !tbaa !705
  %22 = load ptr, ptr %4, align 8, !tbaa !513
  %23 = load ptr, ptr %21, align 8, !tbaa !49
  %24 = getelementptr inbounds ptr, ptr %23, i64 6
  %25 = load ptr, ptr %24, align 8
  call void %25(ptr noundef nonnull align 8 dereferenceable(8) %21, ptr noundef nonnull align 8 dereferenceable(264) %22)
  br label %26

26:                                               ; preds = %17
  %27 = load i64, ptr %5, align 8, !tbaa !181
  %28 = add i64 %27, 1
  store i64 %28, ptr %5, align 8, !tbaa !181
  br label %11, !llvm.loop !767

29:                                               ; preds = %16
  br label %30

30:                                               ; preds = %29, %2
  ret void
}